target datalayout = "e-m:e-p270:32:32-p271:32:32-p272:64:64-i64:64-i128:128-f80:128-n8:16:32:64-S128"
target triple = "x86_64-pc-linux-gnu"

%struct.PQExpBufferData = type { ptr, i64, i64 }

@.str.16 = private unnamed_addr constant [7 x i8] c"  AND \00", align 1
@.str.17 = private unnamed_addr constant [7 x i8] c"WHERE \00", align 1
@.str.18 = private unnamed_addr constant [4 x i8] c"%s\0A\00", align 1
@.str.19 = private unnamed_addr constant [7 x i8] c"^(.*)$\00", align 1
@.str.20 = private unnamed_addr constant [28 x i8] c"(%s OPERATOR(pg_catalog.~) \00", align 1
@.str.21 = private unnamed_addr constant [28 x i8] c" COLLATE pg_catalog.default\00", align 1
@.str.22 = private unnamed_addr constant [39 x i8] c"\0A        OR %s OPERATOR(pg_catalog.~) \00", align 1
@.str.23 = private unnamed_addr constant [3 x i8] c")\0A\00", align 1
@.str.24 = private unnamed_addr constant [27 x i8] c"%s OPERATOR(pg_catalog.~) \00", align 1

; Function Attrs: nounwind uwtable
define dso_local zeroext i1 @processSQLNamePattern(ptr noundef %0, ptr noundef %1, ptr noundef %2, i1 noundef zeroext %3, i1 noundef zeroext %4, ptr noundef %5, ptr noundef %6, ptr noundef %7, ptr noundef %8, ptr noundef %9, ptr noundef %10) #0 {
  %12 = alloca i1, align 1
  %13 = alloca ptr, align 8
  %14 = alloca ptr, align 8
  %15 = alloca ptr, align 8
  %16 = alloca i8, align 1
  %17 = alloca i8, align 1
  %18 = alloca ptr, align 8
  %19 = alloca ptr, align 8
  %20 = alloca ptr, align 8
  %21 = alloca ptr, align 8
  %22 = alloca ptr, align 8
  %23 = alloca ptr, align 8
  %24 = alloca %struct.PQExpBufferData, align 8
  %25 = alloca %struct.PQExpBufferData, align 8
  %26 = alloca i8, align 1
  %27 = alloca i32, align 4
  %28 = alloca i32, align 4
  store ptr %0, ptr %13, align 8
  store ptr %1, ptr %14, align 8
  store ptr %2, ptr %15, align 8
  %29 = zext i1 %3 to i8
  store i8 %29, ptr %16, align 1
  %30 = zext i1 %4 to i8
  store i8 %30, ptr %17, align 1
  store ptr %5, ptr %18, align 8
  store ptr %6, ptr %19, align 8
  store ptr %7, ptr %20, align 8
  store ptr %8, ptr %21, align 8
  store ptr %9, ptr %22, align 8
  store ptr %10, ptr %23, align 8
  call void @llvm.lifetime.start.p0(i64 24, ptr %24) #8
  call void @llvm.lifetime.start.p0(i64 24, ptr %25) #8
  call void @llvm.lifetime.start.p0(i64 1, ptr %26) #8
  store i8 0, ptr %26, align 1
  call void @llvm.lifetime.start.p0(i64 4, ptr %27) #8
  %31 = load ptr, ptr %23, align 8
  %32 = icmp eq ptr %31, null
  br i1 %32, label %33, label %34

33:                                               ; preds = %11
  store ptr %27, ptr %23, align 8
  br label %34

34:                                               ; preds = %33, %11
  %35 = load ptr, ptr %23, align 8
  store i32 0, ptr %35, align 4
  %36 = load ptr, ptr %15, align 8
  %37 = icmp eq ptr %36, null
  br i1 %37, label %38, label %51

38:                                               ; preds = %34
  %39 = load ptr, ptr %21, align 8
  %40 = icmp ne ptr %39, null
  br i1 %40, label %41, label %48

41:                                               ; preds = %38
  %42 = load ptr, ptr %14, align 8
  %43 = load i8, ptr %16, align 1, !range !6, !noundef !7
  %44 = trunc i8 %43 to i1
  %45 = select i1 %44, ptr @.str.16, ptr @.str.17
  call void @appendPQExpBufferStr(ptr noundef %42, ptr noundef %45)
  store i8 1, ptr %16, align 1
  store i8 1, ptr %26, align 1
  %46 = load ptr, ptr %14, align 8
  %47 = load ptr, ptr %21, align 8
  call void (ptr, ptr, ...) @appendPQExpBuffer(ptr noundef %46, ptr noundef @.str.18, ptr noundef %47)
  br label %48

48:                                               ; preds = %41, %38
  %49 = load i8, ptr %26, align 1, !range !6, !noundef !7
  %50 = trunc i8 %49 to i1
  store i1 %50, ptr %12, align 1
  store i32 1, ptr %28, align 4
  br label %179

51:                                               ; preds = %34
  call void @initPQExpBuffer(ptr noundef %24)
  call void @initPQExpBuffer(ptr noundef %25)
  %52 = load ptr, ptr %13, align 8
  %53 = call i32 @PQclientEncoding(ptr noundef %52)
  %54 = load ptr, ptr %18, align 8
  %55 = icmp ne ptr %54, null
  br i1 %55, label %56, label %58

56:                                               ; preds = %51
  %57 = load ptr, ptr %22, align 8
  br label %59

58:                                               ; preds = %51
  br label %59

59:                                               ; preds = %58, %56
  %60 = phi ptr [ %57, %56 ], [ null, %58 ]
  %61 = load ptr, ptr %18, align 8
  %62 = icmp ne ptr %61, null
  br i1 %62, label %63, label %64

63:                                               ; preds = %59
  br label %65

64:                                               ; preds = %59
  br label %65

65:                                               ; preds = %64, %63
  %66 = phi ptr [ %24, %63 ], [ null, %64 ]
  %67 = load ptr, ptr %15, align 8
  %68 = load i8, ptr %17, align 1, !range !6, !noundef !7
  %69 = trunc i8 %68 to i1
  %70 = load ptr, ptr %23, align 8
  call void @patternToSQLRegex(i32 noundef %53, ptr noundef %60, ptr noundef %66, ptr noundef %25, ptr noundef %67, i1 noundef zeroext %69, i1 noundef zeroext true, ptr noundef %70)
  %71 = load ptr, ptr %19, align 8
  %72 = icmp ne ptr %71, null
  br i1 %72, label %73, label %131

73:                                               ; preds = %65
  %74 = getelementptr inbounds nuw %struct.PQExpBufferData, ptr %25, i32 0, i32 1
  %75 = load i64, ptr %74, align 8
  %76 = icmp ugt i64 %75, 2
  br i1 %76, label %77, label %131

77:                                               ; preds = %73
  %78 = getelementptr inbounds nuw %struct.PQExpBufferData, ptr %25, i32 0, i32 0
  %79 = load ptr, ptr %78, align 8
  %80 = call i32 @strcmp(ptr noundef %79, ptr noundef @.str.19) #9
  %81 = icmp ne i32 %80, 0
  br i1 %81, label %82, label %130

82:                                               ; preds = %77
  %83 = load ptr, ptr %14, align 8
  %84 = load i8, ptr %16, align 1, !range !6, !noundef !7
  %85 = trunc i8 %84 to i1
  %86 = select i1 %85, ptr @.str.16, ptr @.str.17
  call void @appendPQExpBufferStr(ptr noundef %83, ptr noundef %86)
  store i8 1, ptr %16, align 1
  store i8 1, ptr %26, align 1
  %87 = load ptr, ptr %20, align 8
  %88 = icmp ne ptr %87, null
  br i1 %88, label %89, label %115

89:                                               ; preds = %82
  %90 = load ptr, ptr %14, align 8
  %91 = load ptr, ptr %19, align 8
  call void (ptr, ptr, ...) @appendPQExpBuffer(ptr noundef %90, ptr noundef @.str.20, ptr noundef %91)
  %92 = load ptr, ptr %14, align 8
  %93 = getelementptr inbounds nuw %struct.PQExpBufferData, ptr %25, i32 0, i32 0
  %94 = load ptr, ptr %93, align 8
  %95 = load ptr, ptr %13, align 8
  call void @appendStringLiteralConn(ptr noundef %92, ptr noundef %94, ptr noundef %95)
  %96 = load ptr, ptr %13, align 8
  %97 = call i32 @PQserverVersion(ptr noundef %96)
  %98 = icmp sge i32 %97, 120000
  br i1 %98, label %99, label %101

99:                                               ; preds = %89
  %100 = load ptr, ptr %14, align 8
  call void @appendPQExpBufferStr(ptr noundef %100, ptr noundef @.str.21)
  br label %101

101:                                              ; preds = %99, %89
  %102 = load ptr, ptr %14, align 8
  %103 = load ptr, ptr %20, align 8
  call void (ptr, ptr, ...) @appendPQExpBuffer(ptr noundef %102, ptr noundef @.str.22, ptr noundef %103)
  %104 = load ptr, ptr %14, align 8
  %105 = getelementptr inbounds nuw %struct.PQExpBufferData, ptr %25, i32 0, i32 0
  %106 = load ptr, ptr %105, align 8
  %107 = load ptr, ptr %13, align 8
  call void @appendStringLiteralConn(ptr noundef %104, ptr noundef %106, ptr noundef %107)
  %108 = load ptr, ptr %13, align 8
  %109 = call i32 @PQserverVersion(ptr noundef %108)
  %110 = icmp sge i32 %109, 120000
  br i1 %110, label %111, label %113

111:                                              ; preds = %101
  %112 = load ptr, ptr %14, align 8
  call void @appendPQExpBufferStr(ptr noundef %112, ptr noundef @.str.21)
  br label %113

113:                                              ; preds = %111, %101
  %114 = load ptr, ptr %14, align 8
  call void @appendPQExpBufferStr(ptr noundef %114, ptr noundef @.str.23)
  br label %129

115:                                              ; preds = %82
  %116 = load ptr, ptr %14, align 8
  %117 = load ptr, ptr %19, align 8
  call void (ptr, ptr, ...) @appendPQExpBuffer(ptr noundef %116, ptr noundef @.str.24, ptr noundef %117)
  %118 = load ptr, ptr %14, align 8
  %119 = getelementptr inbounds nuw %struct.PQExpBufferData, ptr %25, i32 0, i32 0
  %120 = load ptr, ptr %119, align 8
  %121 = load ptr, ptr %13, align 8
  call void @appendStringLiteralConn(ptr noundef %118, ptr noundef %120, ptr noundef %121)
  %122 = load ptr, ptr %13, align 8
  %123 = call i32 @PQserverVersion(ptr noundef %122)
  %124 = icmp sge i32 %123, 120000
  br i1 %124, label %125, label %127

125:                                              ; preds = %115
  %126 = load ptr, ptr %14, align 8
  call void @appendPQExpBufferStr(ptr noundef %126, ptr noundef @.str.21)
  br label %127

127:                                              ; preds = %125, %115
  %128 = load ptr, ptr %14, align 8
  call void @appendPQExpBufferChar(ptr noundef %128, i8 noundef signext 10)
  br label %129

129:                                              ; preds = %127, %113
  br label %130

130:                                              ; preds = %129, %77
  br label %131

131:                                              ; preds = %130, %73, %65
  %132 = load ptr, ptr %18, align 8
  %133 = icmp ne ptr %132, null
  br i1 %133, label %134, label %165

134:                                              ; preds = %131
  %135 = getelementptr inbounds nuw %struct.PQExpBufferData, ptr %24, i32 0, i32 1
  %136 = load i64, ptr %135, align 8
  %137 = icmp ugt i64 %136, 2
  br i1 %137, label %138, label %165

138:                                              ; preds = %134
  %139 = getelementptr inbounds nuw %struct.PQExpBufferData, ptr %24, i32 0, i32 0
  %140 = load ptr, ptr %139, align 8
  %141 = call i32 @strcmp(ptr noundef %140, ptr noundef @.str.19) #9
  %142 = icmp ne i32 %141, 0
  br i1 %142, label %143, label %164

143:                                              ; preds = %138
  %144 = load ptr, ptr %18, align 8
  %145 = icmp ne ptr %144, null
  br i1 %145, label %146, label %164

146:                                              ; preds = %143
  %147 = load ptr, ptr %14, align 8
  %148 = load i8, ptr %16, align 1, !range !6, !noundef !7
  %149 = trunc i8 %148 to i1
  %150 = select i1 %149, ptr @.str.16, ptr @.str.17
  call void @appendPQExpBufferStr(ptr noundef %147, ptr noundef %150)
  store i8 1, ptr %16, align 1
  store i8 1, ptr %26, align 1
  %151 = load ptr, ptr %14, align 8
  %152 = load ptr, ptr %18, align 8
  call void (ptr, ptr, ...) @appendPQExpBuffer(ptr noundef %151, ptr noundef @.str.24, ptr noundef %152)
  %153 = load ptr, ptr %14, align 8
  %154 = getelementptr inbounds nuw %struct.PQExpBufferData, ptr %24, i32 0, i32 0
  %155 = load ptr, ptr %154, align 8
  %156 = load ptr, ptr %13, align 8
  call void @appendStringLiteralConn(ptr noundef %153, ptr noundef %155, ptr noundef %156)
  %157 = load ptr, ptr %13, align 8
  %158 = call i32 @PQserverVersion(ptr noundef %157)
  %159 = icmp sge i32 %158, 120000
  br i1 %159, label %160, label %162

160:                                              ; preds = %146
  %161 = load ptr, ptr %14, align 8
  call void @appendPQExpBufferStr(ptr noundef %161, ptr noundef @.str.21)
  br label %162

162:                                              ; preds = %160, %146
  %163 = load ptr, ptr %14, align 8
  call void @appendPQExpBufferChar(ptr noundef %163, i8 noundef signext 10)
  br label %164

164:                                              ; preds = %162, %143, %138
  br label %176

165:                                              ; preds = %134, %131
  %166 = load ptr, ptr %21, align 8
  %167 = icmp ne ptr %166, null
  br i1 %167, label %168, label %175

168:                                              ; preds = %165
  %169 = load ptr, ptr %14, align 8
  %170 = load i8, ptr %16, align 1, !range !6, !noundef !7
  %171 = trunc i8 %170 to i1
  %172 = select i1 %171, ptr @.str.16, ptr @.str.17
  call void @appendPQExpBufferStr(ptr noundef %169, ptr noundef %172)
  store i8 1, ptr %16, align 1
  store i8 1, ptr %26, align 1
  %173 = load ptr, ptr %14, align 8
  %174 = load ptr, ptr %21, align 8
  call void (ptr, ptr, ...) @appendPQExpBuffer(ptr noundef %173, ptr noundef @.str.18, ptr noundef %174)
  br label %175

175:                                              ; preds = %168, %165
  br label %176

176:                                              ; preds = %175, %164
  call void @termPQExpBuffer(ptr noundef %24)
  call void @termPQExpBuffer(ptr noundef %25)
  %177 = load i8, ptr %26, align 1, !range !6, !noundef !7
  %178 = trunc i8 %177 to i1
  store i1 %178, ptr %12, align 1
  store i32 1, ptr %28, align 4
  br label %179

179:                                              ; preds = %176, %48
  call void @llvm.lifetime.end.p0(i64 4, ptr %27) #8
  call void @llvm.lifetime.end.p0(i64 1, ptr %26) #8
  call void @llvm.lifetime.end.p0(i64 24, ptr %25) #8
  call void @llvm.lifetime.end.p0(i64 24, ptr %24) #8
  %180 = load i1, ptr %12, align 1
  ret i1 %180
}