; Function Attrs: nounwind uwtable
define dso_local noundef zeroext i1 @processSQLNamePattern(ptr noundef %0, ptr noundef %1, ptr noundef %2, i1 noundef zeroext %3, i1 noundef zeroext %4, ptr noundef %5, ptr noundef %6, ptr noundef %7, ptr noundef %8, ptr noundef %9, ptr noundef captures(address_is_null) %10) local_unnamed_addr #0 {
  %12 = alloca %struct.PQExpBufferData, align 8
  %13 = alloca %struct.PQExpBufferData, align 8
  %14 = alloca i32, align 4
  call void @llvm.lifetime.start.p0(i64 24, ptr nonnull %12) #11
  call void @llvm.lifetime.start.p0(i64 24, ptr nonnull %13) #11
  call void @llvm.lifetime.start.p0(i64 4, ptr nonnull %14) #11
  %15 = icmp eq ptr %10, null
  %spec.store.select = select i1 %15, ptr %14, ptr %10
  store i32 0, ptr %spec.store.select, align 4
  %16 = icmp eq ptr %2, null
  br i1 %16, label %17, label %20

17:                                               ; preds = %11
  %.not75.not = icmp eq ptr %8, null
  br i1 %.not75.not, label %69, label %18

18:                                               ; preds = %17
  %19 = select i1 %3, ptr @.str.16, ptr @.str.17
  tail call void @appendPQExpBufferStr(ptr noundef %1, ptr noundef nonnull %19) #11
  tail call void (ptr, ptr, ...) @appendPQExpBuffer(ptr noundef %1, ptr noundef nonnull @.str.18, ptr noundef nonnull %8) #11
  br label %69

20:                                               ; preds = %11
  call void @initPQExpBuffer(ptr noundef nonnull %12) #11
  call void @initPQExpBuffer(ptr noundef nonnull %13) #11
  %21 = call i32 @PQclientEncoding(ptr noundef %0) #11
  %22 = icmp ne ptr %5, null
  %23 = select i1 %22, ptr %9, ptr null
  %24 = select i1 %22, ptr %12, ptr null
  call void @patternToSQLRegex(i32 noundef %21, ptr noundef %23, ptr noundef %24, ptr noundef nonnull %13, ptr noundef nonnull %2, i1 noundef zeroext %4, i1 noundef zeroext true, ptr noundef nonnull %spec.store.select)
  %25 = icmp ne ptr %6, null
  %26 = getelementptr inbounds nuw i8, ptr %13, i64 8
  %27 = load i64, ptr %26, align 8
  %28 = icmp ugt i64 %27, 2
  %or.cond = select i1 %25, i1 %28, i1 false
  br i1 %or.cond, label %29, label %51

29:                                               ; preds = %20
  %30 = load ptr, ptr %13, align 8
  %31 = call i32 @strcmp(ptr noundef nonnull dereferenceable(1) %30, ptr noundef nonnull dereferenceable(7) @.str.19) #12
  %.not = icmp eq i32 %31, 0
  br i1 %.not, label %51, label %32

32:                                               ; preds = %29
  %33 = select i1 %3, ptr @.str.16, ptr @.str.17
  call void @appendPQExpBufferStr(ptr noundef %1, ptr noundef nonnull %33) #11
  %.not72 = icmp eq ptr %7, null
  br i1 %.not72, label %45, label %34

34:                                               ; preds = %32
  call void (ptr, ptr, ...) @appendPQExpBuffer(ptr noundef %1, ptr noundef nonnull @.str.20, ptr noundef nonnull %6) #11
  %35 = load ptr, ptr %13, align 8
  call void @appendStringLiteralConn(ptr noundef %1, ptr noundef %35, ptr noundef %0)
  %36 = call i32 @PQserverVersion(ptr noundef %0) #11
  %37 = icmp sgt i32 %36, 119999
  br i1 %37, label %38, label %39

38:                                               ; preds = %34
  call void @appendPQExpBufferStr(ptr noundef %1, ptr noundef nonnull @.str.21) #11
  br label %39

39:                                               ; preds = %38, %34
  call void (ptr, ptr, ...) @appendPQExpBuffer(ptr noundef %1, ptr noundef nonnull @.str.22, ptr noundef nonnull %7) #11
  %40 = load ptr, ptr %13, align 8
  call void @appendStringLiteralConn(ptr noundef %1, ptr noundef %40, ptr noundef %0)
  %41 = call i32 @PQserverVersion(ptr noundef %0) #11
  %42 = icmp sgt i32 %41, 119999
  br i1 %42, label %43, label %44

43:                                               ; preds = %39
  call void @appendPQExpBufferStr(ptr noundef %1, ptr noundef nonnull @.str.21) #11
  br label %44

44:                                               ; preds = %43, %39
  call void @appendPQExpBufferStr(ptr noundef %1, ptr noundef nonnull @.str.23) #11
  br label %51

45:                                               ; preds = %32
  call void (ptr, ptr, ...) @appendPQExpBuffer(ptr noundef %1, ptr noundef nonnull @.str.24, ptr noundef nonnull %6) #11
  %46 = load ptr, ptr %13, align 8
  call void @appendStringLiteralConn(ptr noundef %1, ptr noundef %46, ptr noundef %0)
  %47 = call i32 @PQserverVersion(ptr noundef %0) #11
  %48 = icmp sgt i32 %47, 119999
  br i1 %48, label %49, label %50

49:                                               ; preds = %45
  call void @appendPQExpBufferStr(ptr noundef %1, ptr noundef nonnull @.str.21) #11
  br label %50

50:                                               ; preds = %49, %45
  call void @appendPQExpBufferChar(ptr noundef %1, i8 noundef signext 10) #11
  br label %51

51:                                               ; preds = %29, %50, %44, %20
  %.065.shrunk = phi i1 [ true, %44 ], [ true, %50 ], [ %3, %29 ], [ %3, %20 ]
  %.1 = phi i1 [ true, %44 ], [ true, %50 ], [ false, %29 ], [ false, %20 ]
  %52 = getelementptr inbounds nuw i8, ptr %12, i64 8
  %53 = load i64, ptr %52, align 8
  %54 = icmp ugt i64 %53, 2
  %or.cond5 = select i1 %22, i1 %54, i1 false
  br i1 %or.cond5, label %55, label %65

55:                                               ; preds = %51
  %56 = load ptr, ptr %12, align 8
  %57 = call i32 @strcmp(ptr noundef nonnull dereferenceable(1) %56, ptr noundef nonnull dereferenceable(7) @.str.19) #12
  %.not74 = icmp eq i32 %57, 0
  br i1 %.not74, label %68, label %58

58:                                               ; preds = %55
  %59 = select i1 %.065.shrunk, ptr @.str.16, ptr @.str.17
  call void @appendPQExpBufferStr(ptr noundef %1, ptr noundef nonnull %59) #11
  call void (ptr, ptr, ...) @appendPQExpBuffer(ptr noundef %1, ptr noundef nonnull @.str.24, ptr noundef nonnull %5) #11
  %60 = load ptr, ptr %12, align 8
  call void @appendStringLiteralConn(ptr noundef %1, ptr noundef %60, ptr noundef %0)
  %61 = call i32 @PQserverVersion(ptr noundef %0) #11
  %62 = icmp sgt i32 %61, 119999
  br i1 %62, label %63, label %64

63:                                               ; preds = %58
  call void @appendPQExpBufferStr(ptr noundef %1, ptr noundef nonnull @.str.21) #11
  br label %64

64:                                               ; preds = %63, %58
  call void @appendPQExpBufferChar(ptr noundef %1, i8 noundef signext 10) #11
  br label %68

65:                                               ; preds = %51
  %.not73 = icmp eq ptr %8, null
  br i1 %.not73, label %68, label %66

66:                                               ; preds = %65
  %67 = select i1 %.065.shrunk, ptr @.str.16, ptr @.str.17
  call void @appendPQExpBufferStr(ptr noundef %1, ptr noundef nonnull %67) #11
  call void (ptr, ptr, ...) @appendPQExpBuffer(ptr noundef %1, ptr noundef nonnull @.str.18, ptr noundef nonnull %8) #11
  br label %68

68:                                               ; preds = %65, %66, %55, %64
  %.2 = phi i1 [ true, %64 ], [ %.1, %55 ], [ true, %66 ], [ %.1, %65 ]
  call void @termPQExpBuffer(ptr noundef nonnull %12) #11
  call void @termPQExpBuffer(ptr noundef nonnull %13) #11
  br label %69

69:                                               ; preds = %17, %18, %68
  %.064 = phi i1 [ %.2, %68 ], [ true, %18 ], [ false, %17 ]
  call void @llvm.lifetime.end.p0(i64 4, ptr nonnull %14) #11
  call void @llvm.lifetime.end.p0(i64 24, ptr nonnull %13) #11
  call void @llvm.lifetime.end.p0(i64 24, ptr nonnull %12) #11
  ret i1 %.064
}